target datalayout = "e-m:e-p270:32:32-p271:32:32-p272:64:64-i64:64-i128:128-f80:128-n8:16:32:64-S128"
target triple = "x86_64-pc-linux-gnu"

%struct.Abc_Ntk_t_ = type { i32, i32, ptr, ptr, ptr, ptr, ptr, ptr, ptr, ptr, ptr, ptr, ptr, [11 x i32], i32, i32, i32, i32, ptr, i32, ptr, ptr, i32, i32, i32, double, i32, %struct.Vec_Int_t_, ptr, ptr, ptr, ptr, ptr, float, i32, ptr, ptr, ptr, ptr, ptr, ptr, ptr, ptr, ptr, ptr, ptr, ptr, ptr, ptr, ptr, ptr, ptr, ptr, ptr, ptr, ptr }
%struct.Vec_Int_t_ = type { i32, i32, ptr }
%struct.Abc_ManTime_t_ = type { %struct.Abc_Time_t_, %struct.Abc_Time_t_, ptr, ptr, %struct.Abc_Time_t_, %struct.Abc_Time_t_, ptr, ptr }
%struct.Abc_Time_t_ = type { float, float }
%struct.Vec_Ptr_t_ = type { i32, i32, ptr }

; Function Attrs: nounwind uwtable
define void @Abc_NtkTimeSetArrival(ptr noundef %0, i32 noundef %1, float noundef %2, float noundef %3) #0 {
  %5 = alloca ptr, align 8
  %6 = alloca i32, align 4
  %7 = alloca float, align 4
  %8 = alloca float, align 4
  %9 = alloca ptr, align 8
  %10 = alloca ptr, align 8
  store ptr %0, ptr %5, align 8
  store i32 %1, ptr %6, align 4
  store float %2, ptr %7, align 4
  store float %3, ptr %8, align 4
  %11 = load ptr, ptr %5, align 8
  %12 = getelementptr inbounds %struct.Abc_Ntk_t_, ptr %11, i32 0, i32 31
  %13 = load ptr, ptr %12, align 8
  %14 = icmp eq ptr %13, null
  br i1 %14, label %15, label %20

15:                                               ; preds = %4
  %16 = load ptr, ptr %5, align 8
  %17 = call ptr @Abc_ManTimeStart(ptr noundef %16)
  %18 = load ptr, ptr %5, align 8
  %19 = getelementptr inbounds %struct.Abc_Ntk_t_, ptr %18, i32 0, i32 31
  store ptr %17, ptr %19, align 8
  br label %20

20:                                               ; preds = %15, %4
  %21 = load ptr, ptr %5, align 8
  %22 = getelementptr inbounds %struct.Abc_Ntk_t_, ptr %21, i32 0, i32 31
  %23 = load ptr, ptr %22, align 8
  %24 = load i32, ptr %6, align 4
  %25 = add nsw i32 %24, 1
  call void @Abc_ManTimeExpand(ptr noundef %23, i32 noundef %25, i32 noundef 1)
  %26 = load ptr, ptr %5, align 8
  %27 = getelementptr inbounds %struct.Abc_Ntk_t_, ptr %26, i32 0, i32 31
  %28 = load ptr, ptr %27, align 8
  %29 = getelementptr inbounds %struct.Abc_ManTime_t_, ptr %28, i32 0, i32 2
  %30 = load ptr, ptr %29, align 8
  store ptr %30, ptr %9, align 8
  %31 = load ptr, ptr %9, align 8
  %32 = getelementptr inbounds %struct.Vec_Ptr_t_, ptr %31, i32 0, i32 2
  %33 = load ptr, ptr %32, align 8
  %34 = load i32, ptr %6, align 4
  %35 = sext i32 %34 to i64
  %36 = getelementptr inbounds ptr, ptr %33, i64 %35
  %37 = load ptr, ptr %36, align 8
  store ptr %37, ptr %10, align 8
  %38 = load float, ptr %7, align 4
  %39 = load ptr, ptr %10, align 8
  %40 = getelementptr inbounds %struct.Abc_Time_t_, ptr %39, i32 0, i32 0
  store float %38, ptr %40, align 4
  %41 = load float, ptr %8, align 4
  %42 = load ptr, ptr %10, align 8
  %43 = getelementptr inbounds %struct.Abc_Time_t_, ptr %42, i32 0, i32 1
  store float %41, ptr %43, align 4
  ret void
}