; Function Attrs: nounwind uwtable
define void @Abc_NtkTimeSetArrival(ptr noundef captures(none) %0, i32 noundef %1, float noundef %2, float noundef %3) local_unnamed_addr #3 {
  %5 = getelementptr inbounds nuw i8, ptr %0, i64 264
  %6 = load ptr, ptr %5, align 8
  %7 = icmp eq ptr %6, null
  br i1 %7, label %8, label %10

8:                                                ; preds = %4
  %9 = tail call fastcc ptr @Abc_ManTimeStart(ptr noundef nonnull %0)
  store ptr %9, ptr %5, align 8
  br label %10

10:                                               ; preds = %8, %4
  %11 = phi ptr [ %9, %8 ], [ %6, %4 ]
  %12 = add nsw i32 %1, 1
  tail call fastcc void @Abc_ManTimeExpand(ptr noundef %11, i32 noundef %12, i32 noundef 1)
  %13 = load ptr, ptr %5, align 8
  %14 = getelementptr inbounds nuw i8, ptr %13, i64 16
  %15 = load ptr, ptr %14, align 8
  %16 = getelementptr inbounds nuw i8, ptr %15, i64 8
  %17 = load ptr, ptr %16, align 8
  %18 = sext i32 %1 to i64
  %19 = getelementptr inbounds ptr, ptr %17, i64 %18
  %20 = load ptr, ptr %19, align 8
  store float %2, ptr %20, align 4
  %21 = getelementptr inbounds nuw i8, ptr %20, i64 4
  store float %3, ptr %21, align 4
  ret void
}